target datalayout = "e-m:e-p270:32:32-p271:32:32-p272:64:64-i64:64-i128:128-f80:128-n8:16:32:64-S128"
target triple = "x86_64-pc-linux-gnu"

%struct.PyMemAllocatorEx = type { ptr, ptr, ptr, ptr, ptr }

; Function Attrs: nounwind uwtable
define internal void @wrap_allocator(ptr noundef %0) #0 {
  %2 = alloca ptr, align 8
  %3 = alloca %struct.PyMemAllocatorEx, align 8
  store ptr %0, ptr %2, align 8, !tbaa !38
  %4 = load ptr, ptr %2, align 8, !tbaa !38
  call void @PyMem_GetAllocator(i32 noundef 2, ptr noundef %4)
  call void @llvm.lifetime.start.p0(i64 40, ptr %3) #11
  %5 = getelementptr inbounds nuw %struct.PyMemAllocatorEx, ptr %3, i32 0, i32 0
  %6 = load ptr, ptr %2, align 8, !tbaa !38
  store ptr %6, ptr %5, align 8, !tbaa !111
  %7 = getelementptr inbounds nuw %struct.PyMemAllocatorEx, ptr %3, i32 0, i32 1
  store ptr @malloc_wrapper, ptr %7, align 8, !tbaa !113
  %8 = getelementptr inbounds nuw %struct.PyMemAllocatorEx, ptr %3, i32 0, i32 2
  store ptr @calloc_wrapper, ptr %8, align 8, !tbaa !114
  %9 = getelementptr inbounds nuw %struct.PyMemAllocatorEx, ptr %3, i32 0, i32 3
  store ptr @realloc_wrapper, ptr %9, align 8, !tbaa !115
  %10 = getelementptr inbounds nuw %struct.PyMemAllocatorEx, ptr %3, i32 0, i32 4
  store ptr @free_wrapper, ptr %10, align 8, !tbaa !116
  call void @PyMem_SetAllocator(i32 noundef 2, ptr noundef %3)
  call void @llvm.lifetime.end.p0(i64 40, ptr %3) #11
  ret void
}

; Function Attrs: nounwind uwtable
define internal void @unwrap_allocator(ptr noundef %0) #0 {
  %2 = alloca ptr, align 8
  store ptr %0, ptr %2, align 8, !tbaa !38
  %3 = load ptr, ptr %2, align 8, !tbaa !38
  call void @PyMem_SetAllocator(i32 noundef 2, ptr noundef %3)
  ret void
}

; Function Attrs: nounwind uwtable
define internal ptr @malloc_wrapper(ptr noundef %0, i64 noundef %1) #0 {
  %3 = alloca ptr, align 8
  %4 = alloca i64, align 8
  %5 = alloca ptr, align 8
  store ptr %0, ptr %3, align 8, !tbaa !38
  store i64 %1, ptr %4, align 8, !tbaa !37
  call void @llvm.lifetime.start.p0(i64 8, ptr %5) #11
  %6 = load ptr, ptr %3, align 8, !tbaa !38
  store ptr %6, ptr %5, align 8, !tbaa !38
  %7 = load ptr, ptr %5, align 8, !tbaa !38
  call void @unwrap_allocator(ptr noundef %7)
  %8 = call ptr @PyEval_GetFrame()
  %9 = load ptr, ptr %5, align 8, !tbaa !38
  call void @wrap_allocator(ptr noundef %9)
  %10 = load ptr, ptr %5, align 8, !tbaa !38
  %11 = getelementptr inbounds nuw %struct.PyMemAllocatorEx, ptr %10, i32 0, i32 1
  %12 = load ptr, ptr %11, align 8, !tbaa !113
  %13 = load ptr, ptr %5, align 8, !tbaa !38
  %14 = getelementptr inbounds nuw %struct.PyMemAllocatorEx, ptr %13, i32 0, i32 0
  %15 = load ptr, ptr %14, align 8, !tbaa !111
  %16 = load i64, ptr %4, align 8, !tbaa !37
  %17 = call ptr %12(ptr noundef %15, i64 noundef %16)
  call void @llvm.lifetime.end.p0(i64 8, ptr %5) #11
  ret ptr %17
}