; Function Attrs: nounwind uwtable
define internal ptr @malloc_wrapper(ptr noundef %0, i64 noundef %1) #0 {
  %3 = alloca %struct.PyMemAllocatorEx, align 8
  tail call void @PyMem_SetAllocator(i32 noundef 2, ptr noundef %0) #20
  %4 = tail call ptr @PyEval_GetFrame() #20
  tail call void @PyMem_GetAllocator(i32 noundef 2, ptr noundef %0) #20
  call void @llvm.lifetime.start.p0(i64 40, ptr nonnull %3) #20
  store ptr %0, ptr %3, align 8, !tbaa !91
  %5 = getelementptr inbounds nuw i8, ptr %3, i64 8
  store ptr @malloc_wrapper, ptr %5, align 8, !tbaa !93
  %6 = getelementptr inbounds nuw i8, ptr %3, i64 16
  store ptr @calloc_wrapper, ptr %6, align 8, !tbaa !94
  %7 = getelementptr inbounds nuw i8, ptr %3, i64 24
  store ptr @realloc_wrapper, ptr %7, align 8, !tbaa !95
  %8 = getelementptr inbounds nuw i8, ptr %3, i64 32
  store ptr @free_wrapper, ptr %8, align 8, !tbaa !96
  call void @PyMem_SetAllocator(i32 noundef 2, ptr noundef nonnull %3) #20
  call void @llvm.lifetime.end.p0(i64 40, ptr nonnull %3) #20
  %9 = getelementptr inbounds nuw i8, ptr %0, i64 8
  %10 = load ptr, ptr %9, align 8, !tbaa !93
  %11 = load ptr, ptr %0, align 8, !tbaa !91
  %12 = call ptr %10(ptr noundef %11, i64 noundef %1) #20
  ret ptr %12
}